; ModuleID = 'source-C-CXX/61/2673.c'
source_filename = "source-C-CXX/61/2673.c"
target datalayout = "e-m:e-p270:32:32-p271:32:32-p272:64:64-i64:64-f80:128-n8:16:32:64-S128"
target triple = "x86_64-pc-linux-gnu"

; Function Attrs: nounwind sspstrong uwtable
define dso_local i32 @main() local_unnamed_addr #0 {
  %1 = alloca [1000 x i8], align 16
  %2 = getelementptr inbounds [1000 x i8], [1000 x i8]* %1, i64 0, i64 0
  call void @llvm.lifetime.start.p0i8(i64 1000, i8* nonnull %2) #4
  %3 = call i32 (i8*, ...) bitcast (i32 (...)* @gets to i32 (i8*, ...)*)(i8* nonnull %2) #4
  br label %4

4:                                                ; preds = %21, %0
  %5 = phi i64 [ %22, %21 ], [ 0, %0 ]
  %6 = getelementptr inbounds [1000 x i8], [1000 x i8]* %1, i64 0, i64 %5
  %7 = load i8, i8* %6, align 1, !tbaa !5
  switch i8 %7, label %8 [
    i8 0, label %23
    i8 32, label %10
  ]

8:                                                ; preds = %4
  %9 = sext i8 %7 to i32
  br label %18

10:                                               ; preds = %4
  %11 = icmp eq i64 %5, 0
  br i1 %11, label %21, label %12

12:                                               ; preds = %10
  %13 = add i64 %5, 4294967295
  %14 = and i64 %13, 4294967295
  %15 = getelementptr inbounds [1000 x i8], [1000 x i8]* %1, i64 0, i64 %14
  %16 = load i8, i8* %15, align 1, !tbaa !5
  %17 = icmp eq i8 %16, 32
  br i1 %17, label %21, label %18

18:                                               ; preds = %12, %8
  %19 = phi i32 [ %9, %8 ], [ 32, %12 ]
  %20 = call i32 @putchar(i32 %19)
  br label %21

21:                                               ; preds = %18, %12, %10
  %22 = add nuw i64 %5, 1
  br label %4, !llvm.loop !8

23:                                               ; preds = %4
  call void @llvm.lifetime.end.p0i8(i64 1000, i8* nonnull %2) #4
  ret i32 0
}

; Function Attrs: argmemonly mustprogress nofree nosync nounwind willreturn
declare void @llvm.lifetime.start.p0i8(i64 immarg, i8* nocapture) #1

declare i32 @gets(...) local_unnamed_addr #2

; Function Attrs: argmemonly mustprogress nofree nosync nounwind willreturn
declare void @llvm.lifetime.end.p0i8(i64 immarg, i8* nocapture) #1

; Function Attrs: nofree nounwind
declare noundef i32 @putchar(i32 noundef) local_unnamed_addr #3


!llvm.module.flags = !{!0, !1, !2, !3}
!llvm.ident = !{!4}

!0 = !{i32 1, !"wchar_size", i32 4}
!1 = !{i32 7, !"PIC Level", i32 2}
!2 = !{i32 7, !"PIE Level", i32 2}
!3 = !{i32 7, !"uwtable", i32 1}
!4 = !{!"clang version 13.0.0"}
!5 = !{!6, !6, i64 0}
!6 = !{!"omnipotent char", !7, i64 0}
!7 = !{!"Simple C/C++ TBAA"}
!8 = distinct !{!8, !9}
!9 = !{!"llvm.loop.mustprogress"}
